******************************************************************************
                  TI ARM Linker Unix v16.9.6                   
******************************************************************************
>> Linked Tue Jan 23 23:25:21 2018

OUTPUT FILE NAME:   <Lab 2.out>
ENTRY POINT SYMBOL: "_c_int00"  address: 00000aa9


MEMORY CONFIGURATION

         name            origin    length      used     unused   attr    fill
----------------------  --------  ---------  --------  --------  ----  --------
  FLASH                 00000000   00040000  00000df2  0003f20e  R  X
  SRAM                  20000000   00008000  00000226  00007dda  RW X


SEGMENT ALLOCATION MAP

run origin  load origin   length   init length attrs members
----------  ----------- ---------- ----------- ----- -------
00000000    00000000    00000df8   00000df8    r-x
  00000000    00000000    0000026c   0000026c    r-- .intvecs
  0000026c    0000026c    00000a6a   00000a6a    r-x .text
  00000cd8    00000cd8    000000dc   000000dc    r-- .const
  00000db8    00000db8    00000040   00000040    r-- .cinit
20000000    20000000    00000226   00000000    rw-
  20000000    20000000    00000200   00000000    rw- .stack
  20000200    20000200    00000024   00000000    rw- .data
  20000224    20000224    00000002   00000000    rw- .bss


SECTION ALLOCATION MAP

 output                                  attributes/
section   page    origin      length       input sections
--------  ----  ----------  ----------   ----------------
.intvecs   0    00000000    0000026c     
                  00000000    0000026c     tm4c123gh6pm_startup_ccs.obj (.intvecs)

.text      0    0000026c    00000a6a     
                  0000026c    0000024c     main.obj (.text)
                  000004b8    00000132     driverlib.lib : gpio.obj (.text:GPIOPadConfigSet)
                  000005ea    00000002     rtsv7M4_T_le_v4SPD16_eabi.lib : mpu_init.obj (.text)
                  000005ec    00000110     driverlib.lib : sysctl.obj (.text:SysCtlClockGet)
                  000006fc    000000f4                   : sysctl.obj (.text:SysCtlClockSet)
                  000007f0    0000009c     rtsv7M4_T_le_v4SPD16_eabi.lib : memcpy_t2.obj (.text)
                  0000088c    0000007a                                   : memset_t2.obj (.text)
                  00000906    00000002                                   : startup.obj (.text)
                  00000908    00000070                                   : autoinit.obj (.text)
                  00000978    00000068     driverlib.lib : interrupt.obj (.text:IntEnable)
                  000009e0    00000068     rtsv7M4_T_le_v4SPD16_eabi.lib : copy_decompress_lzss.obj (.text:decompress:lzss)
                  00000a48    00000060     driverlib.lib : timer.obj (.text:TimerConfigure)
                  00000aa8    00000054     rtsv7M4_T_le_v4SPD16_eabi.lib : boot.obj (.text)
                  00000afc    00000054                                   : exit.obj (.text)
                  00000b50    0000004c                                   : cpy_tbl.obj (.text)
                  00000b9c    00000034     driverlib.lib : sysctl.obj (.text:SysCtlPeripheralEnable)
                  00000bd0    0000002a                   : gpio.obj (.text:GPIODirModeSet)
                  00000bfa    00000018                   : gpio.obj (.text:GPIOPinTypeGPIOOutput)
                  00000c12    00000002     --HOLE-- [fill = 0]
                  00000c14    00000018     rtsv7M4_T_le_v4SPD16_eabi.lib : args_main.obj (.text)
                  00000c2c    00000014                                   : _lock.obj (.text)
                  00000c40    00000012     driverlib.lib : gpio.obj (.text:GPIOPinTypeGPIOInput)
                  00000c52    00000012                   : timer.obj (.text:TimerLoadSet)
                  00000c64    00000010                   : interrupt.obj (.text:IntMasterEnable)
                  00000c74    0000000e                   : timer.obj (.text:TimerEnable)
                  00000c82    0000000e     rtsv7M4_T_le_v4SPD16_eabi.lib : copy_decompress_none.obj (.text:decompress:none)
                  00000c90    0000000c     driverlib.lib : cpu.obj (.text:CPUcpsie)
                  00000c9c    0000000c     rtsv7M4_T_le_v4SPD16_eabi.lib : copy_zero_init.obj (.text:decompress:ZI)
                  00000ca8    0000000c     tm4c123gh6pm_startup_ccs.obj (.text)
                  00000cb4    00000008     driverlib.lib : timer.obj (.text:TimerIntEnable)
                  00000cbc    00000006                   : gpio.obj (.text:GPIOPinRead)
                  00000cc2    00000006                   : gpio.obj (.text:GPIOPinWrite)
                  00000cc8    00000006                   : sysctl.obj (.text:SysCtlDelay)
                  00000cce    00000004                   : timer.obj (.text:TimerIntClear)
                  00000cd2    00000004     rtsv7M4_T_le_v4SPD16_eabi.lib : pre_init.obj (.text)

.const     0    00000cd8    000000dc     
                  00000cd8    00000070     driverlib.lib : interrupt.obj (.const)
                  00000d48    0000006c                   : sysctl.obj (.const:g_pui32Xtals)

.cinit     0    00000db8    00000040     
                  00000db8    00000016     (.cinit..data.load) [load image, compression = lzss]
                  00000dce    00000002     --HOLE-- [fill = 0]
                  00000dd0    0000000c     (__TI_handler_table)
                  00000ddc    00000004     --HOLE-- [fill = 0]
                  00000de0    00000008     (.cinit..bss.load) [load image, compression = zero_init]
                  00000de8    00000010     (__TI_cinit_table)

.init_array 
*          0    00000000    00000000     UNINITIALIZED

.data      0    20000200    00000024     UNINITIALIZED
                  20000200    0000000c     rtsv7M4_T_le_v4SPD16_eabi.lib : exit.obj (.data:$O1$$)
                  2000020c    0000000b     main.obj (.data)
                  20000217    00000001     --HOLE--
                  20000218    00000008     rtsv7M4_T_le_v4SPD16_eabi.lib : _lock.obj (.data:$O1$$)
                  20000220    00000004                                   : stkdepth_vars.obj (.data)

.bss       0    20000224    00000002     UNINITIALIZED
                  20000224    00000001     (.common:sw1State)
                  20000225    00000001     (.common:sw2State)

.stack     0    20000000    00000200     UNINITIALIZED
                  20000000    00000200     --HOLE--

MODULE SUMMARY

       Module                         code   ro data   rw data
       ------                         ----   -------   -------
    ./
       tm4c123gh6pm_startup_ccs.obj   12     620       0      
       main.obj                       588    0         13     
    +--+------------------------------+------+---------+---------+
       Total:                         600    620       13     
                                                              
    /home/shinjan/ti/TivaWare_C_Series-2.1.2.111/driverlib/ccs/Debug/driverlib.lib
       sysctl.obj                     574    108       0      
       gpio.obj                       402    0         0      
       interrupt.obj                  120    112       0      
       timer.obj                      140    0         0      
       cpu.obj                        12     0         0      
    +--+------------------------------+------+---------+---------+
       Total:                         1248   220       0      
                                                              
    /home/shinjan/ti/ccsv7/tools/compiler/ti-cgt-arm_16.9.6.LTS/lib/rtsv7M4_T_le_v4SPD16_eabi.lib
       memcpy_t2.obj                  156    0         0      
       memset_t2.obj                  122    0         0      
       autoinit.obj                   112    0         0      
       copy_decompress_lzss.obj       104    0         0      
       exit.obj                       84     0         12     
       boot.obj                       84     0         0      
       cpy_tbl.obj                    76     0         0      
       _lock.obj                      20     0         8      
       args_main.obj                  24     0         0      
       copy_decompress_none.obj       14     0         0      
       copy_zero_init.obj             12     0         0      
       pre_init.obj                   4      0         0      
       stkdepth_vars.obj              0      0         4      
       mpu_init.obj                   2      0         0      
       startup.obj                    2      0         0      
    +--+------------------------------+------+---------+---------+
       Total:                         816    0         24     
                                                              
       Stack:                         0      0         512    
       Linker Generated:              0      58        0      
    +--+------------------------------+------+---------+---------+
       Grand Total:                   2664   898       549    


LINKER GENERATED COPY TABLES

__TI_cinit_table @ 00000de8 records: 2, size/record: 8, table size: 16
	.data: load addr=00000db8, load size=00000016 bytes, run addr=20000200, run size=00000024 bytes, compression=lzss
	.bss: load addr=00000de0, load size=00000008 bytes, run addr=20000224, run size=00000002 bytes, compression=zero_init


LINKER GENERATED HANDLER TABLE

__TI_handler_table @ 00000dd0 records: 3, size/record: 4, table size: 12
	index: 0, handler: __TI_decompress_lzss
	index: 1, handler: __TI_decompress_none
	index: 2, handler: __TI_zero_init


GLOBAL SYMBOLS: SORTED ALPHABETICALLY BY Name 

address   name                           
-------   ----                           
00000afd  C$$EXIT                        
00000c91  CPUcpsie                       
00000bd1  GPIODirModeSet                 
000004b9  GPIOPadConfigSet               
00000cbd  GPIOPinRead                    
00000c41  GPIOPinTypeGPIOInput           
00000bfb  GPIOPinTypeGPIOOutput          
00000cc3  GPIOPinWrite                   
00000979  IntEnable                      
00000c65  IntMasterEnable                
00000ca9  ResetISR                       
UNDEFED   SHT$$INIT_ARRAY$$Base          
UNDEFED   SHT$$INIT_ARRAY$$Limit         
000005ed  SysCtlClockGet                 
000006fd  SysCtlClockSet                 
00000cc9  SysCtlDelay                    
00000b9d  SysCtlPeripheralEnable         
000003bb  Timer0IntHandler               
00000a49  TimerConfigure                 
00000c75  TimerEnable                    
00000ccf  TimerIntClear                  
00000cb5  TimerIntEnable                 
00000c53  TimerLoadSet                   
20000200  __STACK_END                    
00000200  __STACK_SIZE                   
20000200  __STACK_TOP                    
00000de8  __TI_CINIT_Base                
00000df8  __TI_CINIT_Limit               
00000dd0  __TI_Handler_Table_Base        
00000ddc  __TI_Handler_Table_Limit       
00000909  __TI_auto_init                 
20000200  __TI_cleanup_ptr               
000009e1  __TI_decompress_lzss           
00000c83  __TI_decompress_none           
20000204  __TI_dtors_ptr                 
20000208  __TI_enable_exit_profile_output
ffffffff  __TI_pprof_out_hndl            
ffffffff  __TI_prof_data_size            
ffffffff  __TI_prof_data_start           
00000000  __TI_static_base__             
00000c9d  __TI_zero_init                 
0000088d  __aeabi_memclr                 
0000088d  __aeabi_memclr4                
0000088d  __aeabi_memclr8                
000007f1  __aeabi_memcpy                 
000007f1  __aeabi_memcpy4                
000007f1  __aeabi_memcpy8                
0000088f  __aeabi_memset                 
0000088f  __aeabi_memset4                
0000088f  __aeabi_memset8                
ffffffff  __binit__                      
ffffffff  __c_args__                     
000005eb  __mpu_init                     
20000000  __stack                        
00000c15  _args_main                     
00000aa9  _c_int00                       
20000218  _lock                          
00000c3b  _nop                           
00000c33  _register_lock                 
00000c2d  _register_unlock               
00000907  _system_post_cinit             
00000cd3  _system_pre_init               
2000021c  _unlock                        
00000b01  abort                          
ffffffff  binit                          
00000b51  copy_in                        
0000031d  detectKey1Press                
00000375  detectKey2Press                
00000b09  exit                           
2000020c  flag                           
00000000  g_pfnVectors                   
0000029f  main                           
20000220  main_func_sp                   
000007f1  memcpy                         
00000895  memset                         
0000026d  pin_config                     
20000215  sw1Activation                  
20000224  sw1State                       
20000216  sw2Activation                  
20000225  sw2State                       
20000210  sw2Status                      
00000357  switch1PressAction             
00000373  switch1ReleaseAction           
000003af  switch2PressAction             
000003b9  switch2ReleaseAction           
20000214  ui8PinData                     


GLOBAL SYMBOLS: SORTED BY Symbol Address 

address   name                           
-------   ----                           
00000000  __TI_static_base__             
00000000  g_pfnVectors                   
00000200  __STACK_SIZE                   
0000026d  pin_config                     
0000029f  main                           
0000031d  detectKey1Press                
00000357  switch1PressAction             
00000373  switch1ReleaseAction           
00000375  detectKey2Press                
000003af  switch2PressAction             
000003b9  switch2ReleaseAction           
000003bb  Timer0IntHandler               
000004b9  GPIOPadConfigSet               
000005eb  __mpu_init                     
000005ed  SysCtlClockGet                 
000006fd  SysCtlClockSet                 
000007f1  __aeabi_memcpy                 
000007f1  __aeabi_memcpy4                
000007f1  __aeabi_memcpy8                
000007f1  memcpy                         
0000088d  __aeabi_memclr                 
0000088d  __aeabi_memclr4                
0000088d  __aeabi_memclr8                
0000088f  __aeabi_memset                 
0000088f  __aeabi_memset4                
0000088f  __aeabi_memset8                
00000895  memset                         
00000907  _system_post_cinit             
00000909  __TI_auto_init                 
00000979  IntEnable                      
000009e1  __TI_decompress_lzss           
00000a49  TimerConfigure                 
00000aa9  _c_int00                       
00000afd  C$$EXIT                        
00000b01  abort                          
00000b09  exit                           
00000b51  copy_in                        
00000b9d  SysCtlPeripheralEnable         
00000bd1  GPIODirModeSet                 
00000bfb  GPIOPinTypeGPIOOutput          
00000c15  _args_main                     
00000c2d  _register_unlock               
00000c33  _register_lock                 
00000c3b  _nop                           
00000c41  GPIOPinTypeGPIOInput           
00000c53  TimerLoadSet                   
00000c65  IntMasterEnable                
00000c75  TimerEnable                    
00000c83  __TI_decompress_none           
00000c91  CPUcpsie                       
00000c9d  __TI_zero_init                 
00000ca9  ResetISR                       
00000cb5  TimerIntEnable                 
00000cbd  GPIOPinRead                    
00000cc3  GPIOPinWrite                   
00000cc9  SysCtlDelay                    
00000ccf  TimerIntClear                  
00000cd3  _system_pre_init               
00000dd0  __TI_Handler_Table_Base        
00000ddc  __TI_Handler_Table_Limit       
00000de8  __TI_CINIT_Base                
00000df8  __TI_CINIT_Limit               
20000000  __stack                        
20000200  __STACK_END                    
20000200  __STACK_TOP                    
20000200  __TI_cleanup_ptr               
20000204  __TI_dtors_ptr                 
20000208  __TI_enable_exit_profile_output
2000020c  flag                           
20000210  sw2Status                      
20000214  ui8PinData                     
20000215  sw1Activation                  
20000216  sw2Activation                  
20000218  _lock                          
2000021c  _unlock                        
20000220  main_func_sp                   
20000224  sw1State                       
20000225  sw2State                       
ffffffff  __TI_pprof_out_hndl            
ffffffff  __TI_prof_data_size            
ffffffff  __TI_prof_data_start           
ffffffff  __binit__                      
ffffffff  __c_args__                     
ffffffff  binit                          
UNDEFED   SHT$$INIT_ARRAY$$Base          
UNDEFED   SHT$$INIT_ARRAY$$Limit         

[86 symbols]
